target datalayout = "e-m:e-p270:32:32-p271:32:32-p272:64:64-i64:64-i128:128-f80:128-n8:16:32:64-S128"
target triple = "x86_64-pc-linux-gnu"

@hf_zbee_zdp_nwk_addr = external global i32, align 4
@.str.1 = private unnamed_addr constant [19 x i8] c", Nwk Addr: 0x%04x\00", align 1
@.str.13 = private unnamed_addr constant [13 x i8] c", Status: %s\00", align 1
@ett_zbee_zdp_power = external global i32, align 4

; Function Attrs: nounwind uwtable
define hidden void @dissect_zbee_zdp_rsp_power_desc(ptr noundef %0, ptr noundef %1, ptr noundef %2) #0 {
  %4 = alloca ptr, align 8
  %5 = alloca ptr, align 8
  %6 = alloca ptr, align 8
  %7 = alloca i32, align 4
  %8 = alloca i8, align 1
  %9 = alloca i32, align 4
  store ptr %0, ptr %4, align 8
  store ptr %1, ptr %5, align 8
  store ptr %2, ptr %6, align 8
  store i32 0, ptr %7, align 4
  %10 = load ptr, ptr %6, align 8
  %11 = load ptr, ptr %4, align 8
  %12 = call zeroext i8 @zdp_parse_status(ptr noundef %10, ptr noundef %11, ptr noundef %7)
  store i8 %12, ptr %8, align 1
  %13 = load ptr, ptr %6, align 8
  %14 = load i32, ptr @hf_zbee_zdp_nwk_addr, align 4
  %15 = load ptr, ptr %4, align 8
  %16 = load i32, ptr %7, align 4
  %17 = call ptr @proto_tree_add_item_ret_uint(ptr noundef %13, i32 noundef %14, ptr noundef %15, i32 noundef %16, i32 noundef 2, i32 noundef -2147483648, ptr noundef %9)
  %18 = load i32, ptr %7, align 4
  %19 = add i32 %18, 2
  store i32 %19, ptr %7, align 4
  %20 = load i8, ptr %8, align 1
  %21 = zext i8 %20 to i32
  %22 = icmp eq i32 %21, 0
  br i1 %22, label %23, label %27

23:                                               ; preds = %3
  %24 = load ptr, ptr %6, align 8
  %25 = load i32, ptr @ett_zbee_zdp_power, align 4
  %26 = load ptr, ptr %4, align 8
  call void @zdp_parse_power_desc(ptr noundef %24, i32 noundef %25, ptr noundef %26, ptr noundef %7)
  br label %27

27:                                               ; preds = %23, %3
  %28 = load ptr, ptr %6, align 8
  %29 = load ptr, ptr %5, align 8
  %30 = load i32, ptr %9, align 4
  call void (ptr, ptr, ptr, ...) @zbee_append_info(ptr noundef %28, ptr noundef %29, ptr noundef @.str.1, i32 noundef %30)
  %31 = load ptr, ptr %6, align 8
  %32 = load ptr, ptr %5, align 8
  %33 = load i8, ptr %8, align 1
  %34 = call ptr @zdp_status_name(i8 noundef zeroext %33)
  call void (ptr, ptr, ptr, ...) @zbee_append_info(ptr noundef %31, ptr noundef %32, ptr noundef @.str.13, ptr noundef %34)
  %35 = load ptr, ptr %4, align 8
  %36 = load i32, ptr %7, align 4
  %37 = load ptr, ptr %5, align 8
  %38 = load ptr, ptr %6, align 8
  call void @zdp_dump_excess(ptr noundef %35, i32 noundef %36, ptr noundef %37, ptr noundef %38)
  ret void
}