; Function Attrs: nounwind uwtable
define hidden void @dissect_zbee_zdp_rsp_power_desc(ptr noundef %0, ptr noundef %1, ptr noundef %2) local_unnamed_addr #0 {
  %4 = alloca i32, align 4
  %5 = alloca i32, align 4
  store i32 0, ptr %4, align 4
  %6 = call zeroext i8 @zdp_parse_status(ptr noundef %2, ptr noundef %0, ptr noundef nonnull %4) #2
  %7 = load i32, ptr @hf_zbee_zdp_nwk_addr, align 4
  %8 = load i32, ptr %4, align 4
  %9 = call ptr @proto_tree_add_item_ret_uint(ptr noundef %2, i32 noundef %7, ptr noundef %0, i32 noundef %8, i32 noundef 2, i32 noundef -2147483648, ptr noundef nonnull %5) #2
  %10 = load i32, ptr %4, align 4
  %11 = add i32 %10, 2
  store i32 %11, ptr %4, align 4
  %12 = icmp eq i8 %6, 0
  br i1 %12, label %13, label %15

13:                                               ; preds = %3
  %14 = load i32, ptr @ett_zbee_zdp_power, align 4
  call void @zdp_parse_power_desc(ptr noundef %2, i32 noundef %14, ptr noundef %0, ptr noundef nonnull %4) #2
  br label %15

15:                                               ; preds = %13, %3
  %16 = load i32, ptr %5, align 4
  call void (ptr, ptr, ptr, ...) @zbee_append_info(ptr noundef %2, ptr noundef %1, ptr noundef nonnull @.str.1, i32 noundef %16) #2
  %17 = call ptr @zdp_status_name(i8 noundef zeroext %6) #2
  call void (ptr, ptr, ptr, ...) @zbee_append_info(ptr noundef %2, ptr noundef %1, ptr noundef nonnull @.str.13, ptr noundef %17) #2
  %18 = load i32, ptr %4, align 4
  call void @zdp_dump_excess(ptr noundef %0, i32 noundef %18, ptr noundef %1, ptr noundef %2) #2
  ret void
}